target datalayout = "e-m:e-p270:32:32-p271:32:32-p272:64:64-i64:64-i128:128-f80:128-n8:16:32:64-S128"
target triple = "x86_64-pc-linux-gnu"

%class.BigInteger = type { i32, %class.BigUnsigned }
%class.BigUnsigned = type { %class.NumberlikeArray }
%class.NumberlikeArray = type { i32, i32, ptr }

@_ZTIPKc = external constant ptr
@.str.8 = private unnamed_addr constant [73 x i8] c"BigInteger::to<Primitive>: Value is too big to fit in the requested type\00", align 1

; Function Attrs: mustprogress nounwind uwtable
define linkonce_odr noundef i64 @_ZNK11BigUnsigned8getBlockEj(ptr noundef nonnull align 8 dereferenceable(16) %0, i32 noundef %1) #1 comdat align 2 {
  %3 = alloca ptr, align 8
  %4 = alloca i32, align 4
  store ptr %0, ptr %3, align 8, !tbaa !18
  store i32 %1, ptr %4, align 4, !tbaa !21
  %5 = load ptr, ptr %3, align 8
  %6 = load i32, ptr %4, align 4, !tbaa !21
  %7 = getelementptr inbounds nuw %class.NumberlikeArray, ptr %5, i32 0, i32 1
  %8 = load i32, ptr %7, align 4, !tbaa !32
  %9 = icmp uge i32 %6, %8
  br i1 %9, label %10, label %11

10:                                               ; preds = %2
  br label %18

11:                                               ; preds = %2
  %12 = getelementptr inbounds nuw %class.NumberlikeArray, ptr %5, i32 0, i32 2
  %13 = load ptr, ptr %12, align 8, !tbaa !27
  %14 = load i32, ptr %4, align 4, !tbaa !21
  %15 = zext i32 %14 to i64
  %16 = getelementptr inbounds nuw i64, ptr %13, i64 %15
  %17 = load i64, ptr %16, align 8, !tbaa !28
  br label %18

18:                                               ; preds = %11, %10
  %19 = phi i64 [ 0, %10 ], [ %17, %11 ]
  ret i64 %19
}

; Function Attrs: mustprogress nounwind uwtable
define linkonce_odr noundef i32 @_ZNK15NumberlikeArrayImE9getLengthEv(ptr noundef nonnull align 8 dereferenceable(16) %0) #1 comdat align 2 {
  %2 = alloca ptr, align 8
  store ptr %0, ptr %2, align 8, !tbaa !25
  %3 = load ptr, ptr %2, align 8
  %4 = getelementptr inbounds nuw %class.NumberlikeArray, ptr %3, i32 0, i32 1
  %5 = load i32, ptr %4, align 4, !tbaa !32
  ret i32 %5
}

; Function Attrs: mustprogress uwtable
define linkonce_odr noundef i64 @_ZNK10BigInteger24convertToSignedPrimitiveIlmEET_v(ptr noundef nonnull align 8 dereferenceable(24) %0) #0 comdat align 2 {
  %2 = alloca i64, align 8
  %3 = alloca ptr, align 8
  %4 = alloca i64, align 8
  %5 = alloca i64, align 8
  %6 = alloca i32, align 4
  %7 = alloca i64, align 8
  store ptr %0, ptr %3, align 8, !tbaa !6
  %8 = load ptr, ptr %3, align 8
  %9 = getelementptr inbounds nuw %class.BigInteger, ptr %8, i32 0, i32 0
  %10 = load i32, ptr %9, align 8, !tbaa !11
  %11 = icmp eq i32 %10, 0
  br i1 %11, label %12, label %13

12:                                               ; preds = %1
  store i64 0, ptr %2, align 8
  br label %60

13:                                               ; preds = %1
  %14 = getelementptr inbounds nuw %class.BigInteger, ptr %8, i32 0, i32 1
  %15 = call noundef i32 @_ZNK15NumberlikeArrayImE9getLengthEv(ptr noundef nonnull align 8 dereferenceable(16) %14)
  %16 = icmp eq i32 %15, 1
  br i1 %16, label %17, label %57

17:                                               ; preds = %13
  call void @llvm.lifetime.start.p0(i64 8, ptr %4) #9
  %18 = getelementptr inbounds nuw %class.BigInteger, ptr %8, i32 0, i32 1
  %19 = call noundef i64 @_ZNK11BigUnsigned8getBlockEj(ptr noundef nonnull align 8 dereferenceable(16) %18, i32 noundef 0)
  store i64 %19, ptr %4, align 8, !tbaa !28
  %20 = getelementptr inbounds nuw %class.BigInteger, ptr %8, i32 0, i32 0
  %21 = load i32, ptr %20, align 8, !tbaa !11
  %22 = icmp eq i32 %21, 1
  br i1 %22, label %23, label %37

23:                                               ; preds = %17
  call void @llvm.lifetime.start.p0(i64 8, ptr %5) #9
  %24 = load i64, ptr %4, align 8, !tbaa !28
  store i64 %24, ptr %5, align 8, !tbaa !28
  %25 = load i64, ptr %5, align 8, !tbaa !28
  %26 = icmp sge i64 %25, 0
  br i1 %26, label %27, label %33

27:                                               ; preds = %23
  %28 = load i64, ptr %5, align 8, !tbaa !28
  %29 = load i64, ptr %4, align 8, !tbaa !28
  %30 = icmp eq i64 %28, %29
  br i1 %30, label %31, label %33

31:                                               ; preds = %27
  %32 = load i64, ptr %5, align 8, !tbaa !28
  store i64 %32, ptr %2, align 8
  store i32 1, ptr %6, align 4
  br label %34

33:                                               ; preds = %27, %23
  store i32 0, ptr %6, align 4
  br label %34

34:                                               ; preds = %33, %31
  call void @llvm.lifetime.end.p0(i64 8, ptr %5) #9
  %35 = load i32, ptr %6, align 4
  switch i32 %35, label %54 [
    i32 0, label %36
  ]

36:                                               ; preds = %34
  br label %53

37:                                               ; preds = %17
  call void @llvm.lifetime.start.p0(i64 8, ptr %7) #9
  %38 = load i64, ptr %4, align 8, !tbaa !28
  %39 = sub nsw i64 0, %38
  store i64 %39, ptr %7, align 8, !tbaa !28
  %40 = load i64, ptr %7, align 8, !tbaa !28
  %41 = icmp slt i64 %40, 0
  br i1 %41, label %42, label %49

42:                                               ; preds = %37
  %43 = load i64, ptr %7, align 8, !tbaa !28
  %44 = sub nsw i64 0, %43
  %45 = load i64, ptr %4, align 8, !tbaa !28
  %46 = icmp eq i64 %44, %45
  br i1 %46, label %47, label %49

47:                                               ; preds = %42
  %48 = load i64, ptr %7, align 8, !tbaa !28
  store i64 %48, ptr %2, align 8
  store i32 1, ptr %6, align 4
  br label %50

49:                                               ; preds = %42, %37
  store i32 0, ptr %6, align 4
  br label %50

50:                                               ; preds = %49, %47
  call void @llvm.lifetime.end.p0(i64 8, ptr %7) #9
  %51 = load i32, ptr %6, align 4
  switch i32 %51, label %54 [
    i32 0, label %52
  ]

52:                                               ; preds = %50
  br label %53

53:                                               ; preds = %52, %36
  store i32 0, ptr %6, align 4
  br label %54

54:                                               ; preds = %53, %50, %34
  call void @llvm.lifetime.end.p0(i64 8, ptr %4) #9
  %55 = load i32, ptr %6, align 4
  switch i32 %55, label %62 [
    i32 0, label %56
    i32 1, label %60
  ]

56:                                               ; preds = %54
  br label %57

57:                                               ; preds = %56, %13
  br label %58

58:                                               ; preds = %57
  %59 = call ptr @__cxa_allocate_exception(i64 8) #9
  store ptr @.str.8, ptr %59, align 16, !tbaa !23
  call void @__cxa_throw(ptr %59, ptr @_ZTIPKc, ptr null) #10
  unreachable

60:                                               ; preds = %54, %12
  %61 = load i64, ptr %2, align 8
  ret i64 %61

62:                                               ; preds = %54
  unreachable
}

; Function Attrs: mustprogress uwtable
define noundef i64 @_ZNK10BigInteger6toLongEv(ptr noundef nonnull align 8 dereferenceable(24) %0) #0 align 2 {
  %2 = alloca ptr, align 8
  store ptr %0, ptr %2, align 8, !tbaa !6
  %3 = load ptr, ptr %2, align 8
  %4 = call noundef i64 @_ZNK10BigInteger24convertToSignedPrimitiveIlmEET_v(ptr noundef nonnull align 8 dereferenceable(24) %3)
  ret i64 %4
}