; Function Attrs: mustprogress uwtable
define noundef range(i64 -9223372036854775807, -9223372036854775808) i64 @_ZNK10BigInteger6toLongEv(ptr noundef nonnull readonly align 8 captures(none) dereferenceable(24) %0) local_unnamed_addr #0 align 2 {
  %2 = load i32, ptr %0, align 8, !tbaa !6
  %3 = icmp eq i32 %2, 0
  br i1 %3, label %_ZNK10BigInteger24convertToSignedPrimitiveIlmEET_v.exit, label %4

4:                                                ; preds = %1
  %5 = getelementptr inbounds nuw i8, ptr %0, i64 12
  %6 = load i32, ptr %5, align 4, !tbaa !16
  %7 = icmp eq i32 %6, 1
  br i1 %7, label %_ZNK11BigUnsigned8getBlockEj.exit.i, label %17

_ZNK11BigUnsigned8getBlockEj.exit.i:              ; preds = %4
  %8 = getelementptr inbounds nuw i8, ptr %0, i64 16
  %9 = load ptr, ptr %8, align 8, !tbaa !18
  %10 = load i64, ptr %9, align 8, !tbaa !19
  %11 = icmp eq i32 %2, 1
  br i1 %11, label %12, label %14

12:                                               ; preds = %_ZNK11BigUnsigned8getBlockEj.exit.i
  %13 = icmp slt i64 %10, 0
  br i1 %13, label %17, label %_ZNK10BigInteger24convertToSignedPrimitiveIlmEET_v.exit

14:                                               ; preds = %_ZNK11BigUnsigned8getBlockEj.exit.i
  %15 = sub nsw i64 0, %10
  %16 = icmp slt i64 %10, 1
  br i1 %16, label %17, label %_ZNK10BigInteger24convertToSignedPrimitiveIlmEET_v.exit

17:                                               ; preds = %14, %12, %4
  %18 = tail call ptr @__cxa_allocate_exception(i64 8) #11
  store ptr @.str.8, ptr %18, align 16, !tbaa !24
  tail call void @__cxa_throw(ptr nonnull %18, ptr nonnull @_ZTIPKc, ptr null) #12
  unreachable

_ZNK10BigInteger24convertToSignedPrimitiveIlmEET_v.exit: ; preds = %1, %12, %14
  %.0.i = phi i64 [ 0, %1 ], [ %15, %14 ], [ %10, %12 ]
  ret i64 %.0.i
}